target datalayout = "e-m:e-p270:32:32-p271:32:32-p272:64:64-i64:64-i128:128-f80:128-n8:16:32:64-S128"
target triple = "x86_64-pc-linux-gnu"

%struct.archiver = type { ptr, ptr, i32, ptr }

@nr_tar_filters = internal global i32 0, align 4
@tar_filters = internal global ptr null, align 8
@.str.5 = private unnamed_addr constant [4 x i8] c"tar\00", align 1
@alloc_tar_filters = internal global i32 0, align 4
@.str.28 = private unnamed_addr constant [8 x i8] c"command\00", align 1
@.str.29 = private unnamed_addr constant [7 x i8] c"remote\00", align 1
@.str.37 = private unnamed_addr constant [27 x i8] c"size_t overflow: %lu * %lu\00", align 1

; Function Attrs: inlinehint nounwind uwtable
define internal i32 @const_error() #3 {
  ret i32 -1
}

; Function Attrs: inlinehint nounwind uwtable
define internal i64 @st_mult(i64 noundef %0, i64 noundef %1) #3 {
  %3 = alloca i64, align 8
  %4 = alloca i64, align 8
  store i64 %0, ptr %3, align 8, !tbaa !20
  store i64 %1, ptr %4, align 8, !tbaa !20
  %5 = load i64, ptr %3, align 8, !tbaa !20
  %6 = icmp ne i64 %5, 0
  br i1 %6, label %7, label %15

7:                                                ; preds = %2
  %8 = load i64, ptr %4, align 8, !tbaa !20
  %9 = load i64, ptr %3, align 8, !tbaa !20
  %10 = udiv i64 -1, %9
  %11 = icmp ugt i64 %8, %10
  br i1 %11, label %12, label %15

12:                                               ; preds = %7
  %13 = load i64, ptr %3, align 8, !tbaa !20
  %14 = load i64, ptr %4, align 8, !tbaa !20
  call void (ptr, ...) @die(ptr noundef @.str.37, i64 noundef %13, i64 noundef %14) #11
  unreachable

15:                                               ; preds = %7, %2
  %16 = load i64, ptr %3, align 8, !tbaa !20
  %17 = load i64, ptr %4, align 8, !tbaa !20
  %18 = mul i64 %16, %17
  ret i64 %18
}

; Function Attrs: nounwind uwtable
define internal ptr @find_tar_filter(ptr noundef %0, i64 noundef %1) #0 {
  %3 = alloca ptr, align 8
  %4 = alloca ptr, align 8
  %5 = alloca i64, align 8
  %6 = alloca i32, align 4
  %7 = alloca ptr, align 8
  %8 = alloca i32, align 4
  store ptr %0, ptr %4, align 8, !tbaa !18
  store i64 %1, ptr %5, align 8, !tbaa !20
  call void @llvm.lifetime.start.p0(i64 4, ptr %6) #9
  store i32 0, ptr %6, align 4, !tbaa !4
  br label %9

9:                                                ; preds = %32, %2
  %10 = load i32, ptr %6, align 4, !tbaa !4
  %11 = load i32, ptr @nr_tar_filters, align 4, !tbaa !4
  %12 = icmp slt i32 %10, %11
  br i1 %12, label %13, label %35

13:                                               ; preds = %9
  call void @llvm.lifetime.start.p0(i64 8, ptr %7) #9
  %14 = load ptr, ptr @tar_filters, align 8, !tbaa !8
  %15 = load i32, ptr %6, align 4, !tbaa !4
  %16 = sext i32 %15 to i64
  %17 = getelementptr inbounds ptr, ptr %14, i64 %16
  %18 = load ptr, ptr %17, align 8, !tbaa !11
  store ptr %18, ptr %7, align 8, !tbaa !11
  %19 = load ptr, ptr %7, align 8, !tbaa !11
  %20 = getelementptr inbounds nuw %struct.archiver, ptr %19, i32 0, i32 0
  %21 = load ptr, ptr %20, align 8, !tbaa !22
  %22 = load ptr, ptr %4, align 8, !tbaa !18
  %23 = load i64, ptr %5, align 8, !tbaa !20
  %24 = call i32 @xstrncmpz(ptr noundef %21, ptr noundef %22, i64 noundef %23)
  %25 = icmp ne i32 %24, 0
  br i1 %25, label %28, label %26

26:                                               ; preds = %13
  %27 = load ptr, ptr %7, align 8, !tbaa !11
  store ptr %27, ptr %3, align 8
  store i32 1, ptr %8, align 4
  br label %29

28:                                               ; preds = %13
  store i32 0, ptr %8, align 4
  br label %29

29:                                               ; preds = %28, %26
  call void @llvm.lifetime.end.p0(i64 8, ptr %7) #9
  %30 = load i32, ptr %8, align 4
  switch i32 %30, label %36 [
    i32 0, label %31
  ]

31:                                               ; preds = %29
  br label %32

32:                                               ; preds = %31
  %33 = load i32, ptr %6, align 4, !tbaa !4
  %34 = add nsw i32 %33, 1
  store i32 %34, ptr %6, align 4, !tbaa !4
  br label %9, !llvm.loop !83

35:                                               ; preds = %9
  store ptr null, ptr %3, align 8
  store i32 1, ptr %8, align 4
  br label %36

36:                                               ; preds = %35, %29
  call void @llvm.lifetime.end.p0(i64 4, ptr %6) #9
  %37 = load ptr, ptr %3, align 8
  ret ptr %37
}

; Function Attrs: nounwind uwtable
define internal i32 @tar_filter_config(ptr noundef %0, ptr noundef %1, ptr noundef %2) #0 {
  %4 = alloca i32, align 4
  %5 = alloca ptr, align 8
  %6 = alloca ptr, align 8
  %7 = alloca ptr, align 8
  %8 = alloca ptr, align 8
  %9 = alloca ptr, align 8
  %10 = alloca ptr, align 8
  %11 = alloca i64, align 8
  %12 = alloca i32, align 4
  store ptr %0, ptr %5, align 8, !tbaa !18
  store ptr %1, ptr %6, align 8, !tbaa !18
  store ptr %2, ptr %7, align 8, !tbaa !19
  call void @llvm.lifetime.start.p0(i64 8, ptr %8) #9
  call void @llvm.lifetime.start.p0(i64 8, ptr %9) #9
  call void @llvm.lifetime.start.p0(i64 8, ptr %10) #9
  call void @llvm.lifetime.start.p0(i64 8, ptr %11) #9
  %13 = load ptr, ptr %5, align 8, !tbaa !18
  %14 = call i32 @parse_config_key(ptr noundef %13, ptr noundef @.str.5, ptr noundef %9, ptr noundef %11, ptr noundef %10)
  %15 = icmp slt i32 %14, 0
  br i1 %15, label %19, label %16

16:                                               ; preds = %3
  %17 = load ptr, ptr %9, align 8, !tbaa !18
  %18 = icmp ne ptr %17, null
  br i1 %18, label %20, label %19

19:                                               ; preds = %16, %3
  store i32 0, ptr %4, align 4
  store i32 1, ptr %12, align 4
  br label %113

20:                                               ; preds = %16
  %21 = load ptr, ptr %9, align 8, !tbaa !18
  %22 = load i64, ptr %11, align 8, !tbaa !20
  %23 = call ptr @find_tar_filter(ptr noundef %21, i64 noundef %22)
  store ptr %23, ptr %8, align 8, !tbaa !11
  %24 = load ptr, ptr %8, align 8, !tbaa !11
  %25 = icmp ne ptr %24, null
  br i1 %25, label %73, label %26

26:                                               ; preds = %20
  %27 = call ptr @xcalloc(i64 noundef 1, i64 noundef 32)
  store ptr %27, ptr %8, align 8, !tbaa !11
  %28 = load ptr, ptr %9, align 8, !tbaa !18
  %29 = load i64, ptr %11, align 8, !tbaa !20
  %30 = call ptr @xmemdupz(ptr noundef %28, i64 noundef %29)
  %31 = load ptr, ptr %8, align 8, !tbaa !11
  %32 = getelementptr inbounds nuw %struct.archiver, ptr %31, i32 0, i32 0
  store ptr %30, ptr %32, align 8, !tbaa !22
  %33 = load ptr, ptr %8, align 8, !tbaa !11
  %34 = getelementptr inbounds nuw %struct.archiver, ptr %33, i32 0, i32 1
  store ptr @write_tar_filter_archive, ptr %34, align 8, !tbaa !23
  %35 = load ptr, ptr %8, align 8, !tbaa !11
  %36 = getelementptr inbounds nuw %struct.archiver, ptr %35, i32 0, i32 2
  store i32 5, ptr %36, align 8, !tbaa !24
  br label %37

37:                                               ; preds = %26
  %38 = load i32, ptr @nr_tar_filters, align 4, !tbaa !4
  %39 = add nsw i32 %38, 1
  %40 = load i32, ptr @alloc_tar_filters, align 4, !tbaa !4
  %41 = icmp sgt i32 %39, %40
  br i1 %41, label %42, label %64

42:                                               ; preds = %37
  %43 = load i32, ptr @alloc_tar_filters, align 4, !tbaa !4
  %44 = add nsw i32 %43, 16
  %45 = mul nsw i32 %44, 3
  %46 = sdiv i32 %45, 2
  %47 = load i32, ptr @nr_tar_filters, align 4, !tbaa !4
  %48 = add nsw i32 %47, 1
  %49 = icmp slt i32 %46, %48
  br i1 %49, label %50, label %53

50:                                               ; preds = %42
  %51 = load i32, ptr @nr_tar_filters, align 4, !tbaa !4
  %52 = add nsw i32 %51, 1
  store i32 %52, ptr @alloc_tar_filters, align 4, !tbaa !4
  br label %58

53:                                               ; preds = %42
  %54 = load i32, ptr @alloc_tar_filters, align 4, !tbaa !4
  %55 = add nsw i32 %54, 16
  %56 = mul nsw i32 %55, 3
  %57 = sdiv i32 %56, 2
  store i32 %57, ptr @alloc_tar_filters, align 4, !tbaa !4
  br label %58

58:                                               ; preds = %53, %50
  %59 = load ptr, ptr @tar_filters, align 8, !tbaa !8
  %60 = load i32, ptr @alloc_tar_filters, align 4, !tbaa !4
  %61 = sext i32 %60 to i64
  %62 = call i64 @st_mult(i64 noundef 8, i64 noundef %61)
  %63 = call ptr @xrealloc(ptr noundef %59, i64 noundef %62)
  store ptr %63, ptr @tar_filters, align 8, !tbaa !8
  br label %64

64:                                               ; preds = %58, %37
  br label %65

65:                                               ; preds = %64
  br label %66

66:                                               ; preds = %65
  %67 = load ptr, ptr %8, align 8, !tbaa !11
  %68 = load ptr, ptr @tar_filters, align 8, !tbaa !8
  %69 = load i32, ptr @nr_tar_filters, align 4, !tbaa !4
  %70 = add nsw i32 %69, 1
  store i32 %70, ptr @nr_tar_filters, align 4, !tbaa !4
  %71 = sext i32 %69 to i64
  %72 = getelementptr inbounds ptr, ptr %68, i64 %71
  store ptr %67, ptr %72, align 8, !tbaa !11
  br label %73

73:                                               ; preds = %66, %20
  %74 = load ptr, ptr %10, align 8, !tbaa !18
  %75 = call i32 @strcmp(ptr noundef %74, ptr noundef @.str.28) #10
  %76 = icmp ne i32 %75, 0
  br i1 %76, label %92, label %77

77:                                               ; preds = %73
  %78 = load ptr, ptr %6, align 8, !tbaa !18
  %79 = icmp ne ptr %78, null
  br i1 %79, label %84, label %80

80:                                               ; preds = %77
  %81 = load ptr, ptr %5, align 8, !tbaa !18
  %82 = call i32 @config_error_nonbool(ptr noundef %81)
  %83 = call i32 @const_error()
  store i32 %83, ptr %4, align 4
  store i32 1, ptr %12, align 4
  br label %113

84:                                               ; preds = %77
  %85 = load ptr, ptr %8, align 8, !tbaa !11
  %86 = getelementptr inbounds nuw %struct.archiver, ptr %85, i32 0, i32 3
  %87 = load ptr, ptr %86, align 8, !tbaa !13
  call void @free(ptr noundef %87) #9
  %88 = load ptr, ptr %6, align 8, !tbaa !18
  %89 = call ptr @xstrdup(ptr noundef %88)
  %90 = load ptr, ptr %8, align 8, !tbaa !11
  %91 = getelementptr inbounds nuw %struct.archiver, ptr %90, i32 0, i32 3
  store ptr %89, ptr %91, align 8, !tbaa !13
  store i32 0, ptr %4, align 4
  store i32 1, ptr %12, align 4
  br label %113

92:                                               ; preds = %73
  %93 = load ptr, ptr %10, align 8, !tbaa !18
  %94 = call i32 @strcmp(ptr noundef %93, ptr noundef @.str.29) #10
  %95 = icmp ne i32 %94, 0
  br i1 %95, label %112, label %96

96:                                               ; preds = %92
  %97 = load ptr, ptr %5, align 8, !tbaa !18
  %98 = load ptr, ptr %6, align 8, !tbaa !18
  %99 = call i32 @git_config_bool(ptr noundef %97, ptr noundef %98)
  %100 = icmp ne i32 %99, 0
  br i1 %100, label %101, label %106

101:                                              ; preds = %96
  %102 = load ptr, ptr %8, align 8, !tbaa !11
  %103 = getelementptr inbounds nuw %struct.archiver, ptr %102, i32 0, i32 2
  %104 = load i32, ptr %103, align 8, !tbaa !24
  %105 = or i32 %104, 2
  store i32 %105, ptr %103, align 8, !tbaa !24
  br label %111

106:                                              ; preds = %96
  %107 = load ptr, ptr %8, align 8, !tbaa !11
  %108 = getelementptr inbounds nuw %struct.archiver, ptr %107, i32 0, i32 2
  %109 = load i32, ptr %108, align 8, !tbaa !24
  %110 = and i32 %109, -3
  store i32 %110, ptr %108, align 8, !tbaa !24
  br label %111

111:                                              ; preds = %106, %101
  store i32 0, ptr %4, align 4
  store i32 1, ptr %12, align 4
  br label %113

112:                                              ; preds = %92
  store i32 0, ptr %4, align 4
  store i32 1, ptr %12, align 4
  br label %113

113:                                              ; preds = %112, %111, %84, %80, %19
  call void @llvm.lifetime.end.p0(i64 8, ptr %11) #9
  call void @llvm.lifetime.end.p0(i64 8, ptr %10) #9
  call void @llvm.lifetime.end.p0(i64 8, ptr %9) #9
  call void @llvm.lifetime.end.p0(i64 8, ptr %8) #9
  %114 = load i32, ptr %4, align 4
  ret i32 %114
}