; Function Attrs: nounwind uwtable
define internal fastcc range(i32 -1, 1) i32 @tar_filter_config(ptr noundef %0, ptr noundef %1) unnamed_addr #0 {
  %3 = alloca ptr, align 8
  %4 = alloca ptr, align 8
  %5 = alloca i64, align 8
  call void @llvm.lifetime.start.p0(i64 8, ptr nonnull %3) #11
  call void @llvm.lifetime.start.p0(i64 8, ptr nonnull %4) #11
  call void @llvm.lifetime.start.p0(i64 8, ptr nonnull %5) #11
  %6 = call i32 @parse_config_key(ptr noundef %0, ptr noundef nonnull @.str.5, ptr noundef nonnull %3, ptr noundef nonnull %5, ptr noundef nonnull %4) #11
  %7 = icmp sgt i32 %6, -1
  %8 = load ptr, ptr %3, align 8
  %9 = icmp ne ptr %8, null
  %or.cond = select i1 %7, i1 %9, i1 false
  br i1 %or.cond, label %10, label %67

10:                                               ; preds = %2
  %11 = load i64, ptr %5, align 8, !tbaa !20
  %12 = load i32, ptr @nr_tar_filters, align 4, !tbaa !9
  %13 = icmp sgt i32 %12, 0
  br i1 %13, label %.lr.ph.i, label %.loopexit

14:                                               ; preds = %.lr.ph.i
  %indvars.iv.next.i = add nuw nsw i64 %indvars.iv.i, 1
  %15 = load i32, ptr @nr_tar_filters, align 4, !tbaa !9
  %16 = sext i32 %15 to i64
  %17 = icmp slt i64 %indvars.iv.next.i, %16
  br i1 %17, label %.lr.ph.i, label %.loopexit, !llvm.loop !22

.lr.ph.i:                                         ; preds = %10, %14
  %indvars.iv.i = phi i64 [ %indvars.iv.next.i, %14 ], [ 0, %10 ]
  %18 = load ptr, ptr @tar_filters, align 8, !tbaa !11
  %19 = getelementptr inbounds nuw ptr, ptr %18, i64 %indvars.iv.i
  %20 = load ptr, ptr %19, align 8, !tbaa !13
  %21 = load ptr, ptr %20, align 8, !tbaa !23
  %22 = call i32 @xstrncmpz(ptr noundef %21, ptr noundef nonnull %8, i64 noundef %11) #11
  %.not.not.i = icmp eq i32 %22, 0
  br i1 %.not.not.i, label %find_tar_filter.exit, label %14

.loopexit:                                        ; preds = %14, %10
  %23 = call ptr @xcalloc(i64 noundef 1, i64 noundef 32) #11
  %24 = load ptr, ptr %3, align 8, !tbaa !24
  %25 = load i64, ptr %5, align 8, !tbaa !20
  %26 = call ptr @xmemdupz(ptr noundef %24, i64 noundef %25) #11
  store ptr %26, ptr %23, align 8, !tbaa !23
  %27 = getelementptr inbounds nuw i8, ptr %23, i64 8
  store ptr @write_tar_filter_archive, ptr %27, align 8, !tbaa !25
  %28 = getelementptr inbounds nuw i8, ptr %23, i64 16
  store i32 5, ptr %28, align 8, !tbaa !26
  %29 = load i32, ptr @nr_tar_filters, align 4, !tbaa !9
  %30 = load i32, ptr @alloc_tar_filters, align 4, !tbaa !9
  %.not23 = icmp slt i32 %29, %30
  br i1 %.not23, label %.loopexit._crit_edge, label %31

.loopexit._crit_edge:                             ; preds = %.loopexit
  %.pre = load ptr, ptr @tar_filters, align 8, !tbaa !11
  br label %42

31:                                               ; preds = %.loopexit
  %32 = add nsw i32 %29, 1
  %33 = mul i32 %30, 3
  %34 = add i32 %33, 48
  %35 = sdiv i32 %34, 2
  %.not24 = icmp sgt i32 %35, %29
  %. = select i1 %.not24, i32 %35, i32 %32
  store i32 %., ptr @alloc_tar_filters, align 4, !tbaa !9
  %36 = sext i32 %. to i64
  %37 = icmp slt i32 %., 0
  br i1 %37, label %38, label %st_mult.exit

38:                                               ; preds = %31
  call void (ptr, ...) @die(ptr noundef nonnull @.str.37, i64 noundef 8, i64 noundef range(i64 -2147483648, 2147483648) %36) #12
  unreachable

st_mult.exit:                                     ; preds = %31
  %39 = load ptr, ptr @tar_filters, align 8, !tbaa !11
  %40 = shl nuw nsw i64 %36, 3
  %41 = call ptr @xrealloc(ptr noundef %39, i64 noundef %40) #11
  store ptr %41, ptr @tar_filters, align 8, !tbaa !11
  %.pre5 = load i32, ptr @nr_tar_filters, align 4, !tbaa !9
  br label %42

42:                                               ; preds = %.loopexit._crit_edge, %st_mult.exit
  %43 = phi i32 [ %29, %.loopexit._crit_edge ], [ %.pre5, %st_mult.exit ]
  %44 = phi ptr [ %.pre, %.loopexit._crit_edge ], [ %41, %st_mult.exit ]
  %45 = add nsw i32 %43, 1
  store i32 %45, ptr @nr_tar_filters, align 4, !tbaa !9
  %46 = sext i32 %43 to i64
  %47 = getelementptr inbounds ptr, ptr %44, i64 %46
  store ptr %23, ptr %47, align 8, !tbaa !13
  br label %find_tar_filter.exit

find_tar_filter.exit:                             ; preds = %.lr.ph.i, %42
  %.0 = phi ptr [ %23, %42 ], [ %20, %.lr.ph.i ]
  %48 = load ptr, ptr %4, align 8, !tbaa !24
  %49 = call i32 @strcmp(ptr noundef nonnull dereferenceable(1) %48, ptr noundef nonnull dereferenceable(8) @.str.28) #13
  %.not25 = icmp eq i32 %49, 0
  br i1 %.not25, label %50, label %57

50:                                               ; preds = %find_tar_filter.exit
  %.not26 = icmp eq ptr %1, null
  br i1 %.not26, label %51, label %53

51:                                               ; preds = %50
  %52 = call i32 @config_error_nonbool(ptr noundef %0) #11
  br label %67

53:                                               ; preds = %50
  %54 = getelementptr inbounds nuw i8, ptr %.0, i64 24
  %55 = load ptr, ptr %54, align 8, !tbaa !15
  call void @free(ptr noundef %55) #11
  %56 = call ptr @xstrdup(ptr noundef nonnull %1) #11
  store ptr %56, ptr %54, align 8, !tbaa !15
  br label %67

57:                                               ; preds = %find_tar_filter.exit
  %58 = call i32 @strcmp(ptr noundef nonnull dereferenceable(1) %48, ptr noundef nonnull dereferenceable(7) @.str.29) #13
  %.not27 = icmp eq i32 %58, 0
  br i1 %.not27, label %59, label %67

59:                                               ; preds = %57
  %60 = call i32 @git_config_bool(ptr noundef %0, ptr noundef %1) #11
  %.not28 = icmp eq i32 %60, 0
  %61 = getelementptr inbounds nuw i8, ptr %.0, i64 16
  %62 = load i32, ptr %61, align 8, !tbaa !26
  br i1 %.not28, label %65, label %63

63:                                               ; preds = %59
  %64 = or i32 %62, 2
  store i32 %64, ptr %61, align 8, !tbaa !26
  br label %67

65:                                               ; preds = %59
  %66 = and i32 %62, -3
  store i32 %66, ptr %61, align 8, !tbaa !26
  br label %67

67:                                               ; preds = %57, %63, %65, %2, %53, %51
  %.016 = phi i32 [ 0, %53 ], [ -1, %51 ], [ 0, %2 ], [ 0, %65 ], [ 0, %63 ], [ 0, %57 ]
  call void @llvm.lifetime.end.p0(i64 8, ptr nonnull %5) #11
  call void @llvm.lifetime.end.p0(i64 8, ptr nonnull %4) #11
  call void @llvm.lifetime.end.p0(i64 8, ptr nonnull %3) #11
  ret i32 %.016
}